(lp0
(lp1
csip
_unpickle_type
p2
(S'PyQt4.QtCore'
p3
S'QPointF'
p4
(F-213.0
F-14.0
tp5
tp6
Rp7
ag2
(g3
S'QPointF'
p8
(F-213.0
F-114.0
tp9
tp10
Rp11
ag2
(g3
S'QPointF'
p12
(F-113.0
F-114.0
tp13
tp14
Rp15
ag2
(g3
S'QPointF'
p16
(F-113.0
F-14.0
tp17
tp18
Rp19
ag2
(g3
S'QPointF'
p20
(F-13.0
F-14.0
tp21
tp22
Rp23
ag2
(g3
S'QPointF'
p24
(F-13.0
F-164.0
tp25
tp26
Rp27
ag2
(g3
S'QPointF'
p28
(F-263.0
F-164.0
tp29
tp30
Rp31
ag2
(g3
S'QPointF'
p32
(F-213.0
F-14.0
tp33
tp34
Rp35
aa(lp36
g2
(g3
S'QPointF'
p37
(F-213.0
F-15.0
tp38
tp39
Rp40
ag2
(g3
S'QPointF'
p41
(F-213.0
F-115.0
tp42
tp43
Rp44
ag2
(g3
S'QPointF'
p45
(F-113.0
F-115.0
tp46
tp47
Rp48
ag2
(g3
S'QPointF'
p49
(F-113.0
F-65.0
tp50
tp51
Rp52
ag2
(g3
S'QPointF'
p53
(F-213.0
F-15.0
tp54
tp55
Rp56
aa(lp57
g2
(g3
S'QPointF'
p58
(F0.0
F200.0
tp59
tp60
Rp61
ag2
(g3
S'QPointF'
p62
(F0.0
F150.0
tp63
tp64
Rp65
ag2
(g3
S'QPointF'
p66
(F100.0
F150.0
tp67
tp68
Rp69
ag2
(g3
S'QPointF'
p70
(F100.0
F200.0
tp71
tp72
Rp73
ag2
(g3
S'QPointF'
p74
(F0.0
F200.0
tp75
tp76
Rp77
aa(lp78
g2
(g3
S'QPointF'
p79
(F1.0
F201.0
tp80
tp81
Rp82
ag2
(g3
S'QPointF'
p83
(F1.0
F151.0
tp84
tp85
Rp86
ag2
(g3
S'QPointF'
p87
(F101.0
F151.0
tp88
tp89
Rp90
ag2
(g3
S'QPointF'
p91
(F101.0
F201.0
tp92
tp93
Rp94
ag2
(g3
S'QPointF'
p95
(F1.0
F201.0
tp96
tp97
Rp98
aa(lp99
g2
(g3
S'QPointF'
p100
(F-23.0
F145.0
tp101
tp102
Rp103
ag2
(g3
S'QPointF'
p104
(F-23.0
F95.0
tp105
tp106
Rp107
ag2
(g3
S'QPointF'
p108
(F77.0
F95.0
tp109
tp110
Rp111
ag2
(g3
S'QPointF'
p112
(F77.0
F145.0
tp113
tp114
Rp115
ag2
(g3
S'QPointF'
p116
(F-23.0
F145.0
tp117
tp118
Rp119
aa(lp120
g2
(g3
S'QPointF'
p121
(F-259.0
F95.0
tp122
tp123
Rp124
ag2
(g3
S'QPointF'
p125
(F-259.0
F45.0
tp126
tp127
Rp128
ag2
(g3
S'QPointF'
p129
(F-159.0
F45.0
tp130
tp131
Rp132
ag2
(g3
S'QPointF'
p133
(F-159.0
F95.0
tp134
tp135
Rp136
ag2
(g3
S'QPointF'
p137
(F-259.0
F95.0
tp138
tp139
Rp140
aa.